target datalayout = "e-m:e-p270:32:32-p271:32:32-p272:64:64-i64:64-i128:128-f80:128-n8:16:32:64-S128"
target triple = "x86_64-pc-linux-gnu"

%struct.RangeCoder = type { i32, i32, i32, i32, [256 x i8], [256 x i8], ptr, ptr, ptr, i32 }

; Function Attrs: nounwind uwtable
define void @ff_build_rac_states(ptr noundef %0, i32 noundef %1, i32 noundef %2) #2 {
  %4 = alloca ptr, align 8
  %5 = alloca i32, align 4
  %6 = alloca i32, align 4
  %7 = alloca i64, align 8
  %8 = alloca i64, align 8
  %9 = alloca i32, align 4
  %10 = alloca i32, align 4
  %11 = alloca i32, align 4
  store ptr %0, ptr %4, align 8, !tbaa !4
  store i32 %1, ptr %5, align 4, !tbaa !11
  store i32 %2, ptr %6, align 4, !tbaa !11
  call void @llvm.lifetime.start.p0(i64 8, ptr %7) #8
  store i64 4294967296, ptr %7, align 8, !tbaa !25
  call void @llvm.lifetime.start.p0(i64 8, ptr %8) #8
  call void @llvm.lifetime.start.p0(i64 4, ptr %9) #8
  call void @llvm.lifetime.start.p0(i64 4, ptr %10) #8
  call void @llvm.lifetime.start.p0(i64 4, ptr %11) #8
  %12 = load ptr, ptr %4, align 8, !tbaa !4
  %13 = getelementptr inbounds nuw %struct.RangeCoder, ptr %12, i32 0, i32 4
  %14 = getelementptr inbounds [256 x i8], ptr %13, i64 0, i64 0
  call void @llvm.memset.p0.i64(ptr align 8 %14, i8 0, i64 256, i1 false)
  %15 = load ptr, ptr %4, align 8, !tbaa !4
  %16 = getelementptr inbounds nuw %struct.RangeCoder, ptr %15, i32 0, i32 5
  %17 = getelementptr inbounds [256 x i8], ptr %16, i64 0, i64 0
  call void @llvm.memset.p0.i64(ptr align 8 %17, i8 0, i64 256, i1 false)
  store i32 0, ptr %9, align 4, !tbaa !11
  store i64 2147483648, ptr %8, align 8, !tbaa !25
  store i32 0, ptr %11, align 4, !tbaa !11
  br label %18

18:                                               ; preds = %62, %3
  %19 = load i32, ptr %11, align 4, !tbaa !11
  %20 = icmp slt i32 %19, 128
  br i1 %20, label %21, label %65

21:                                               ; preds = %18
  %22 = load i64, ptr %8, align 8, !tbaa !25
  %23 = mul nsw i64 256, %22
  %24 = add nsw i64 %23, 2147483648
  %25 = ashr i64 %24, 32
  %26 = trunc i64 %25 to i32
  store i32 %26, ptr %10, align 4, !tbaa !11
  %27 = load i32, ptr %10, align 4, !tbaa !11
  %28 = load i32, ptr %9, align 4, !tbaa !11
  %29 = icmp sle i32 %27, %28
  br i1 %29, label %30, label %33

30:                                               ; preds = %21
  %31 = load i32, ptr %9, align 4, !tbaa !11
  %32 = add nsw i32 %31, 1
  store i32 %32, ptr %10, align 4, !tbaa !11
  br label %33

33:                                               ; preds = %30, %21
  %34 = load i32, ptr %9, align 4, !tbaa !11
  %35 = icmp ne i32 %34, 0
  br i1 %35, label %36, label %51

36:                                               ; preds = %33
  %37 = load i32, ptr %9, align 4, !tbaa !11
  %38 = icmp slt i32 %37, 256
  br i1 %38, label %39, label %51

39:                                               ; preds = %36
  %40 = load i32, ptr %10, align 4, !tbaa !11
  %41 = load i32, ptr %6, align 4, !tbaa !11
  %42 = icmp sle i32 %40, %41
  br i1 %42, label %43, label %51

43:                                               ; preds = %39
  %44 = load i32, ptr %10, align 4, !tbaa !11
  %45 = trunc i32 %44 to i8
  %46 = load ptr, ptr %4, align 8, !tbaa !4
  %47 = getelementptr inbounds nuw %struct.RangeCoder, ptr %46, i32 0, i32 5
  %48 = load i32, ptr %9, align 4, !tbaa !11
  %49 = sext i32 %48 to i64
  %50 = getelementptr inbounds [256 x i8], ptr %47, i64 0, i64 %49
  store i8 %45, ptr %50, align 1, !tbaa !21
  br label %51

51:                                               ; preds = %43, %39, %36, %33
  %52 = load i64, ptr %8, align 8, !tbaa !25
  %53 = sub nsw i64 4294967296, %52
  %54 = load i32, ptr %5, align 4, !tbaa !11
  %55 = sext i32 %54 to i64
  %56 = mul nsw i64 %53, %55
  %57 = add nsw i64 %56, 2147483648
  %58 = ashr i64 %57, 32
  %59 = load i64, ptr %8, align 8, !tbaa !25
  %60 = add nsw i64 %59, %58
  store i64 %60, ptr %8, align 8, !tbaa !25
  %61 = load i32, ptr %10, align 4, !tbaa !11
  store i32 %61, ptr %9, align 4, !tbaa !11
  br label %62

62:                                               ; preds = %51
  %63 = load i32, ptr %11, align 4, !tbaa !11
  %64 = add nsw i32 %63, 1
  store i32 %64, ptr %11, align 4, !tbaa !11
  br label %18, !llvm.loop !27

65:                                               ; preds = %18
  %66 = load i32, ptr %6, align 4, !tbaa !11
  %67 = sub nsw i32 256, %66
  store i32 %67, ptr %11, align 4, !tbaa !11
  br label %68

68:                                               ; preds = %121, %65
  %69 = load i32, ptr %11, align 4, !tbaa !11
  %70 = load i32, ptr %6, align 4, !tbaa !11
  %71 = icmp sle i32 %69, %70
  br i1 %71, label %72, label %124

72:                                               ; preds = %68
  %73 = load ptr, ptr %4, align 8, !tbaa !4
  %74 = getelementptr inbounds nuw %struct.RangeCoder, ptr %73, i32 0, i32 5
  %75 = load i32, ptr %11, align 4, !tbaa !11
  %76 = sext i32 %75 to i64
  %77 = getelementptr inbounds [256 x i8], ptr %74, i64 0, i64 %76
  %78 = load i8, ptr %77, align 1, !tbaa !21
  %79 = icmp ne i8 %78, 0
  br i1 %79, label %80, label %81

80:                                               ; preds = %72
  br label %121

81:                                               ; preds = %72
  %82 = load i32, ptr %11, align 4, !tbaa !11
  %83 = sext i32 %82 to i64
  %84 = mul nsw i64 %83, 4294967296
  %85 = add nsw i64 %84, 128
  %86 = ashr i64 %85, 8
  store i64 %86, ptr %8, align 8, !tbaa !25
  %87 = load i64, ptr %8, align 8, !tbaa !25
  %88 = sub nsw i64 4294967296, %87
  %89 = load i32, ptr %5, align 4, !tbaa !11
  %90 = sext i32 %89 to i64
  %91 = mul nsw i64 %88, %90
  %92 = add nsw i64 %91, 2147483648
  %93 = ashr i64 %92, 32
  %94 = load i64, ptr %8, align 8, !tbaa !25
  %95 = add nsw i64 %94, %93
  store i64 %95, ptr %8, align 8, !tbaa !25
  %96 = load i64, ptr %8, align 8, !tbaa !25
  %97 = mul nsw i64 256, %96
  %98 = add nsw i64 %97, 2147483648
  %99 = ashr i64 %98, 32
  %100 = trunc i64 %99 to i32
  store i32 %100, ptr %10, align 4, !tbaa !11
  %101 = load i32, ptr %10, align 4, !tbaa !11
  %102 = load i32, ptr %11, align 4, !tbaa !11
  %103 = icmp sle i32 %101, %102
  br i1 %103, label %104, label %107

104:                                              ; preds = %81
  %105 = load i32, ptr %11, align 4, !tbaa !11
  %106 = add nsw i32 %105, 1
  store i32 %106, ptr %10, align 4, !tbaa !11
  br label %107

107:                                              ; preds = %104, %81
  %108 = load i32, ptr %10, align 4, !tbaa !11
  %109 = load i32, ptr %6, align 4, !tbaa !11
  %110 = icmp sgt i32 %108, %109
  br i1 %110, label %111, label %113

111:                                              ; preds = %107
  %112 = load i32, ptr %6, align 4, !tbaa !11
  store i32 %112, ptr %10, align 4, !tbaa !11
  br label %113

113:                                              ; preds = %111, %107
  %114 = load i32, ptr %10, align 4, !tbaa !11
  %115 = trunc i32 %114 to i8
  %116 = load ptr, ptr %4, align 8, !tbaa !4
  %117 = getelementptr inbounds nuw %struct.RangeCoder, ptr %116, i32 0, i32 5
  %118 = load i32, ptr %11, align 4, !tbaa !11
  %119 = sext i32 %118 to i64
  %120 = getelementptr inbounds [256 x i8], ptr %117, i64 0, i64 %119
  store i8 %115, ptr %120, align 1, !tbaa !21
  br label %121

121:                                              ; preds = %113, %80
  %122 = load i32, ptr %11, align 4, !tbaa !11
  %123 = add nsw i32 %122, 1
  store i32 %123, ptr %11, align 4, !tbaa !11
  br label %68, !llvm.loop !29

124:                                              ; preds = %68
  store i32 1, ptr %11, align 4, !tbaa !11
  br label %125

125:                                              ; preds = %144, %124
  %126 = load i32, ptr %11, align 4, !tbaa !11
  %127 = icmp slt i32 %126, 255
  br i1 %127, label %128, label %147

128:                                              ; preds = %125
  %129 = load ptr, ptr %4, align 8, !tbaa !4
  %130 = getelementptr inbounds nuw %struct.RangeCoder, ptr %129, i32 0, i32 5
  %131 = load i32, ptr %11, align 4, !tbaa !11
  %132 = sub nsw i32 256, %131
  %133 = sext i32 %132 to i64
  %134 = getelementptr inbounds [256 x i8], ptr %130, i64 0, i64 %133
  %135 = load i8, ptr %134, align 1, !tbaa !21
  %136 = zext i8 %135 to i32
  %137 = sub nsw i32 256, %136
  %138 = trunc i32 %137 to i8
  %139 = load ptr, ptr %4, align 8, !tbaa !4
  %140 = getelementptr inbounds nuw %struct.RangeCoder, ptr %139, i32 0, i32 4
  %141 = load i32, ptr %11, align 4, !tbaa !11
  %142 = sext i32 %141 to i64
  %143 = getelementptr inbounds [256 x i8], ptr %140, i64 0, i64 %142
  store i8 %138, ptr %143, align 1, !tbaa !21
  br label %144

144:                                              ; preds = %128
  %145 = load i32, ptr %11, align 4, !tbaa !11
  %146 = add nsw i32 %145, 1
  store i32 %146, ptr %11, align 4, !tbaa !11
  br label %125, !llvm.loop !30

147:                                              ; preds = %125
  call void @llvm.lifetime.end.p0(i64 4, ptr %11) #8
  call void @llvm.lifetime.end.p0(i64 4, ptr %10) #8
  call void @llvm.lifetime.end.p0(i64 4, ptr %9) #8
  call void @llvm.lifetime.end.p0(i64 8, ptr %8) #8
  call void @llvm.lifetime.end.p0(i64 8, ptr %7) #8
  ret void
}