; Function Attrs: nofree norecurse nosync nounwind memory(argmem: readwrite) uwtable
define void @ff_build_rac_states(ptr noundef captures(none) initializes((16, 528)) %0, i32 noundef %1, i32 noundef %2) local_unnamed_addr #2 {
  %4 = getelementptr inbounds nuw i8, ptr %0, i64 16
  %5 = getelementptr inbounds nuw i8, ptr %0, i64 272
  %6 = sext i32 %1 to i64
  tail call void @llvm.memset.p0.i64(ptr noundef nonnull align 8 dereferenceable(512) %4, i8 0, i64 512, i1 false)
  br label %7

7:                                                ; preds = %3, %19
  %.064 = phi i32 [ 0, %3 ], [ %25, %19 ]
  %.04863 = phi i32 [ 0, %3 ], [ %spec.select, %19 ]
  %.04962 = phi i64 [ 2147483648, %3 ], [ %24, %19 ]
  %8 = shl nsw i64 %.04962, 8
  %9 = add nsw i64 %8, 2147483648
  %10 = lshr i64 %9, 32
  %11 = trunc nuw i64 %10 to i32
  %.not55 = icmp slt i32 %.04863, %11
  %12 = add nsw i32 %.04863, 1
  %spec.select = select i1 %.not55, i32 %11, i32 %12
  %13 = icmp eq i32 %.04863, 0
  %14 = icmp sgt i32 %.04863, 255
  %or.cond.not61 = or i1 %13, %14
  %.not56 = icmp sgt i32 %spec.select, %2
  %or.cond57 = select i1 %or.cond.not61, i1 true, i1 %.not56
  br i1 %or.cond57, label %19, label %15

15:                                               ; preds = %7
  %16 = trunc i32 %spec.select to i8
  %17 = sext i32 %.04863 to i64
  %18 = getelementptr inbounds [256 x i8], ptr %5, i64 0, i64 %17
  store i8 %16, ptr %18, align 1, !tbaa !17
  br label %19

19:                                               ; preds = %15, %7
  %20 = sub nsw i64 4294967296, %.04962
  %21 = mul nsw i64 %20, %6
  %22 = add nsw i64 %21, 2147483648
  %23 = ashr i64 %22, 32
  %24 = add nsw i64 %23, %.04962
  %25 = add nuw nsw i32 %.064, 1
  %exitcond.not = icmp eq i32 %25, 128
  br i1 %exitcond.not, label %26, label %7, !llvm.loop !19

26:                                               ; preds = %19
  %27 = sub nsw i32 256, %2
  %.not65 = icmp sgt i32 %27, %2
  br i1 %.not65, label %.preheader.preheader, label %.lr.ph

.lr.ph:                                           ; preds = %26
  %28 = sext i32 %27 to i64
  %29 = add i32 %2, 1
  br label %30

30:                                               ; preds = %.lr.ph, %48
  %indvars.iv = phi i64 [ %28, %.lr.ph ], [ %indvars.iv.next.pre-phi, %48 ]
  %31 = getelementptr inbounds [256 x i8], ptr %5, i64 0, i64 %indvars.iv
  %32 = load i8, ptr %31, align 1, !tbaa !17
  %.not53 = icmp eq i8 %32, 0
  br i1 %.not53, label %33, label %._crit_edge

._crit_edge:                                      ; preds = %30
  %.pre = add nsw i64 %indvars.iv, 1
  %.pre74 = trunc i64 %.pre to i32
  br label %48

33:                                               ; preds = %30
  %34 = shl nsw i64 %indvars.iv, 24
  %35 = sub nsw i64 4294967296, %34
  %36 = mul nsw i64 %35, %6
  %37 = add nsw i64 %36, 2147483648
  %38 = ashr i64 %37, 32
  %39 = add nsw i64 %38, %34
  %40 = shl nsw i64 %39, 8
  %41 = add nsw i64 %40, 2147483648
  %42 = lshr i64 %41, 32
  %43 = trunc nuw i64 %42 to i32
  %44 = ashr i64 %41, 32
  %.not54 = icmp slt i64 %indvars.iv, %44
  %45 = add nsw i64 %indvars.iv, 1
  %46 = trunc i64 %45 to i32
  %spec.select58 = select i1 %.not54, i32 %43, i32 %46
  %.247 = tail call i32 @llvm.smin.i32(i32 %spec.select58, i32 %2)
  %47 = trunc i32 %.247 to i8
  store i8 %47, ptr %31, align 1, !tbaa !17
  br label %48

48:                                               ; preds = %._crit_edge, %33
  %lftr.wideiv.pre-phi = phi i32 [ %.pre74, %._crit_edge ], [ %46, %33 ]
  %indvars.iv.next.pre-phi = phi i64 [ %.pre, %._crit_edge ], [ %45, %33 ]
  %exitcond69.not = icmp eq i32 %lftr.wideiv.pre-phi, %29
  br i1 %exitcond69.not, label %.preheader.preheader, label %30, !llvm.loop !21

.preheader.preheader:                             ; preds = %48, %26
  br label %.preheader

.preheader:                                       ; preds = %.preheader.preheader, %.preheader
  %indvars.iv70 = phi i64 [ %indvars.iv.next71, %.preheader ], [ 1, %.preheader.preheader ]
  %49 = sub nuw nsw i64 256, %indvars.iv70
  %50 = getelementptr inbounds nuw [256 x i8], ptr %5, i64 0, i64 %49
  %51 = load i8, ptr %50, align 1, !tbaa !17
  %52 = sub i8 0, %51
  %53 = getelementptr inbounds nuw [256 x i8], ptr %4, i64 0, i64 %indvars.iv70
  store i8 %52, ptr %53, align 1, !tbaa !17
  %indvars.iv.next71 = add nuw nsw i64 %indvars.iv70, 1
  %exitcond73.not = icmp eq i64 %indvars.iv.next71, 255
  br i1 %exitcond73.not, label %54, label %.preheader, !llvm.loop !22

54:                                               ; preds = %.preheader
  ret void
}